; Function Attrs: mustprogress uwtable
define hidden void @_ZN4cvc58internal6theory2uf20CardinalityExtension35CombinedCardinalityDecisionStrategy9mkLiteralEj(ptr dead_on_unwind noalias writable sret(%"class.cvc5::internal::NodeTemplate") align 8 %0, ptr noundef nonnull align 8 dereferenceable(144) %1, i32 noundef %2) unnamed_addr #4 align 2 personality ptr @__gxx_personality_v0 {
_ZN4cvc58internal7IntegerC2Ej.exit:
  %3 = alloca %"class.cvc5::internal::NodeBuilder", align 8
  %4 = alloca %"class.cvc5::internal::NodeTemplate.69", align 8
  %5 = alloca %"class.cvc5::internal::NodeTemplate", align 8
  %6 = alloca %"class.cvc5::internal::CombinedCardinalityConstraint", align 8
  %7 = alloca %"class.cvc5::internal::Integer", align 8
  %8 = tail call noundef ptr @_ZNK4cvc58internal6EnvObj11nodeManagerEv(ptr noundef nonnull align 8 dereferenceable(16) %1)
  call void @llvm.lifetime.start.p0(i64 8, ptr nonnull %5) #27
  call void @llvm.lifetime.start.p0(i64 16, ptr nonnull %6) #27
  call void @llvm.lifetime.start.p0(i64 16, ptr nonnull %7) #27
  %9 = zext i32 %2 to i64
  call void @__gmpz_init_set_ui(ptr noundef nonnull align 8 dereferenceable(16) %7, i64 noundef %9)
  invoke void @_ZN4cvc58internal29CombinedCardinalityConstraintC1ERKNS0_7IntegerE(ptr noundef nonnull align 8 dereferenceable(16) %6, ptr noundef nonnull align 8 dereferenceable(16) %7)
          to label %10 unwind label %39

10:                                               ; preds = %_ZN4cvc58internal7IntegerC2Ej.exit
  invoke void @_ZN4cvc58internal11NodeManager7mkConstINS0_29CombinedCardinalityConstraintEEENS0_12NodeTemplateILb1EEERKT_(ptr dead_on_unwind nonnull writable sret(%"class.cvc5::internal::NodeTemplate") align 8 %5, ptr noundef nonnull align 8 dereferenceable(3560) %8, ptr noundef nonnull align 8 dereferenceable(16) %6)
          to label %11 unwind label %41

11:                                               ; preds = %10
  call void @_ZN4cvc58internal29CombinedCardinalityConstraintD1Ev(ptr noundef nonnull align 8 dereferenceable(16) %6) #27
  invoke void @__gmpz_clear(ptr noundef nonnull align 8 dereferenceable(16) %7)
          to label %_ZN4cvc58internal7IntegerD2Ev.exit unwind label %12

12:                                               ; preds = %11
  %13 = landingpad { ptr, i32 }
          catch ptr null
  %14 = extractvalue { ptr, i32 } %13, 0
  call void @__clang_call_terminate(ptr %14) #28
  unreachable

_ZN4cvc58internal7IntegerD2Ev.exit:               ; preds = %11
  call void @llvm.lifetime.end.p0(i64 16, ptr nonnull %7) #27
  call void @llvm.lifetime.end.p0(i64 16, ptr nonnull %6) #27
  %15 = load ptr, ptr %5, align 8, !tbaa !70
  call void @llvm.lifetime.start.p0(i64 8, ptr nonnull %4)
  call void @llvm.lifetime.start.p0(i64 128, ptr nonnull %3) #27, !noalias !692
  %16 = getelementptr inbounds nuw i8, ptr %15, i64 16
  %17 = load ptr, ptr %16, align 8, !tbaa !214, !noalias !692
  invoke void @_ZN4cvc58internal11NodeBuilderC1EPNS0_11NodeManagerENS0_4kind6Kind_tE(ptr noundef nonnull align 8 dereferenceable(124) %3, ptr noundef %17, i32 noundef 34)
          to label %.noexc unwind label %47

.noexc:                                           ; preds = %_ZN4cvc58internal7IntegerD2Ev.exit
  store ptr %15, ptr %4, align 8, !tbaa !179, !noalias !692
  %18 = invoke noundef nonnull align 8 dereferenceable(124) ptr @_ZN4cvc58internal11NodeBuilderlsENS0_12NodeTemplateILb0EEE(ptr noundef nonnull align 8 dereferenceable(124) %3, ptr noundef nonnull %4)
          to label %19 unwind label %22, !noalias !692

19:                                               ; preds = %.noexc
  invoke void @_ZN4cvc58internal11NodeBuilder13constructNodeEv(ptr dead_on_unwind writable sret(%"class.cvc5::internal::NodeTemplate") align 8 %0, ptr noundef nonnull align 8 dereferenceable(124) %3)
          to label %25 unwind label %20

20:                                               ; preds = %19
  %21 = landingpad { ptr, i32 }
          cleanup
  br label %24

22:                                               ; preds = %.noexc
  %23 = landingpad { ptr, i32 }
          cleanup
  br label %24

24:                                               ; preds = %22, %20
  %.pn.i = phi { ptr, i32 } [ %21, %20 ], [ %23, %22 ]
  call void @_ZN4cvc58internal11NodeBuilderD1Ev(ptr noundef nonnull align 8 dereferenceable(124) %3) #27
  call void @llvm.lifetime.end.p0(i64 128, ptr nonnull %3) #27, !noalias !692
  br label %.body

25:                                               ; preds = %19
  call void @_ZN4cvc58internal11NodeBuilderD1Ev(ptr noundef nonnull align 8 dereferenceable(124) %3) #27
  call void @llvm.lifetime.end.p0(i64 128, ptr nonnull %3) #27, !noalias !692
  call void @llvm.lifetime.end.p0(i64 8, ptr nonnull %4)
  %26 = load ptr, ptr %5, align 8, !tbaa !70
  %27 = load i64, ptr %26, align 8
  %28 = and i64 %27, 1152920405095219200
  %.not.i.i = icmp eq i64 %28, 1152920405095219200
  br i1 %.not.i.i, label %_ZN4cvc58internal12NodeTemplateILb1EED2Ev.exit, label %29, !prof !72

29:                                               ; preds = %25
  %30 = add i64 %27, 1152920405095219200
  %31 = and i64 %30, 1152920405095219200
  %32 = and i64 %27, -1152920405095219201
  %33 = or disjoint i64 %31, %32
  store i64 %33, ptr %26, align 8
  %34 = icmp eq i64 %31, 0
  br i1 %34, label %35, label %_ZN4cvc58internal12NodeTemplateILb1EED2Ev.exit, !prof !72

35:                                               ; preds = %29
  invoke void @_ZN4cvc58internal4expr9NodeValue15markForDeletionEv(ptr noundef nonnull align 8 dereferenceable(24) %26)
          to label %_ZN4cvc58internal12NodeTemplateILb1EED2Ev.exit unwind label %36

36:                                               ; preds = %35
  %37 = landingpad { ptr, i32 }
          catch ptr null
  %38 = extractvalue { ptr, i32 } %37, 0
  call void @__clang_call_terminate(ptr %38) #28
  unreachable

_ZN4cvc58internal12NodeTemplateILb1EED2Ev.exit:   ; preds = %25, %29, %35
  call void @llvm.lifetime.end.p0(i64 8, ptr nonnull %5) #27
  ret void

39:                                               ; preds = %_ZN4cvc58internal7IntegerC2Ej.exit
  %40 = landingpad { ptr, i32 }
          cleanup
  br label %43

41:                                               ; preds = %10
  %42 = landingpad { ptr, i32 }
          cleanup
  call void @_ZN4cvc58internal29CombinedCardinalityConstraintD1Ev(ptr noundef nonnull align 8 dereferenceable(16) %6) #27
  br label %43

43:                                               ; preds = %41, %39
  %.pn = phi { ptr, i32 } [ %42, %41 ], [ %40, %39 ]
  invoke void @__gmpz_clear(ptr noundef nonnull align 8 dereferenceable(16) %7)
          to label %_ZN4cvc58internal7IntegerD2Ev.exit9 unwind label %44

44:                                               ; preds = %43
  %45 = landingpad { ptr, i32 }
          catch ptr null
  %46 = extractvalue { ptr, i32 } %45, 0
  call void @__clang_call_terminate(ptr %46) #28
  unreachable

_ZN4cvc58internal7IntegerD2Ev.exit9:              ; preds = %43
  call void @llvm.lifetime.end.p0(i64 16, ptr nonnull %7) #27
  call void @llvm.lifetime.end.p0(i64 16, ptr nonnull %6) #27
  br label %49

47:                                               ; preds = %_ZN4cvc58internal7IntegerD2Ev.exit
  %48 = landingpad { ptr, i32 }
          cleanup
  br label %.body

.body:                                            ; preds = %24, %47
  %eh.lpad-body = phi { ptr, i32 } [ %48, %47 ], [ %.pn.i, %24 ]
  call void @_ZN4cvc58internal12NodeTemplateILb1EED2Ev(ptr noundef nonnull align 8 dereferenceable(8) %5) #27
  br label %49

49:                                               ; preds = %.body, %_ZN4cvc58internal7IntegerD2Ev.exit9
  %.pn7 = phi { ptr, i32 } [ %eh.lpad-body, %.body ], [ %.pn, %_ZN4cvc58internal7IntegerD2Ev.exit9 ]
  call void @llvm.lifetime.end.p0(i64 8, ptr nonnull %5) #27
  resume { ptr, i32 } %.pn7
}